target datalayout = "e-m:e-p270:32:32-p271:32:32-p272:64:64-i64:64-i128:128-f80:128-n8:16:32:64-S128"
target triple = "x86_64-pc-linux-gnu"

%struct._zval_struct = type { %union._zend_value, %union.anon, %union.anon.2 }
%union._zend_value = type { i64 }
%union.anon = type { i32 }
%union.anon.2 = type { i32 }
%union._zend_function = type { %struct._zend_op_array }
%struct._zend_op_array = type { i8, [3 x i8], i32, ptr, ptr, ptr, i32, i32, ptr, ptr, ptr, ptr, i32, ptr, i32, i32, i32, ptr, ptr, ptr, ptr, ptr, i32, i32, ptr, ptr, ptr, i32, i32, i32, i32, ptr, ptr, [6 x ptr] }
%struct._zend_refcounted_h = type { i32, %union.anon.4 }
%union.anon.4 = type { i32 }
%struct._zend_closure = type { %struct._zend_object, %union._zend_function, %struct._zval_struct, ptr, ptr }
%struct._zend_object = type { %struct._zend_refcounted_h, i32, i32, ptr, ptr, ptr, [1 x %struct._zval_struct] }
%struct.anon.3 = type { i8, [3 x i8], i32, ptr, ptr, ptr, i32, i32, ptr, ptr, ptr, ptr, i32, ptr }

; Function Attrs: nounwind uwtable
define dso_local void @zend_create_fake_closure(ptr noundef %0, ptr noundef %1, ptr noundef %2, ptr noundef %3, ptr noundef %4) #0 {
  %6 = alloca ptr, align 8
  %7 = alloca ptr, align 8
  %8 = alloca ptr, align 8
  %9 = alloca ptr, align 8
  %10 = alloca ptr, align 8
  %11 = alloca ptr, align 8
  store ptr %0, ptr %6, align 8, !tbaa !9
  store ptr %1, ptr %7, align 8, !tbaa !17
  store ptr %2, ptr %8, align 8, !tbaa !47
  store ptr %3, ptr %9, align 8, !tbaa !47
  store ptr %4, ptr %10, align 8, !tbaa !9
  call void @llvm.lifetime.start.p0(i64 8, ptr %11) #11
  %12 = load ptr, ptr %6, align 8, !tbaa !9
  %13 = load ptr, ptr %7, align 8, !tbaa !17
  %14 = load ptr, ptr %8, align 8, !tbaa !47
  %15 = load ptr, ptr %9, align 8, !tbaa !47
  %16 = load ptr, ptr %10, align 8, !tbaa !9
  call void @zend_create_closure_ex(ptr noundef %12, ptr noundef %13, ptr noundef %14, ptr noundef %15, ptr noundef %16, i1 noundef zeroext true)
  %17 = load ptr, ptr %6, align 8, !tbaa !9
  %18 = getelementptr inbounds nuw %struct._zval_struct, ptr %17, i32 0, i32 0
  %19 = load ptr, ptr %18, align 8, !tbaa !20
  store ptr %19, ptr %11, align 8, !tbaa !40
  %20 = load ptr, ptr %11, align 8, !tbaa !40
  %21 = getelementptr inbounds nuw %struct._zend_closure, ptr %20, i32 0, i32 1
  %22 = getelementptr inbounds nuw %struct.anon.3, ptr %21, i32 0, i32 2
  %23 = load i32, ptr %22, align 4, !tbaa !20
  %24 = or i32 %23, 8388608
  store i32 %24, ptr %22, align 4, !tbaa !20
  call void @llvm.lifetime.end.p0(i64 8, ptr %11) #11
  ret void
}