; Function Attrs: nounwind uwtable
define dso_local void @zend_create_fake_closure(ptr noundef %0, ptr noundef captures(none) %1, ptr noundef %2, ptr noundef %3, ptr noundef captures(address_is_null) %4) local_unnamed_addr #0 {
  tail call fastcc void @zend_create_closure_ex(ptr noundef %0, ptr noundef %1, ptr noundef %2, ptr noundef %3, ptr noundef %4, i1 noundef zeroext true)
  %6 = load ptr, ptr %0, align 8, !tbaa !15
  %7 = getelementptr inbounds nuw i8, ptr %6, i64 60
  %8 = load i32, ptr %7, align 4, !tbaa !15
  %9 = or i32 %8, 8388608
  store i32 %9, ptr %7, align 4, !tbaa !15
  ret void
}